target datalayout = "e-m:e-p270:32:32-p271:32:32-p272:64:64-i64:64-i128:128-f80:128-n8:16:32:64-S128"
target triple = "x86_64-pc-linux-gnu"

%struct._value_string_ext = type { ptr, i32, i32, ptr, ptr }
%struct.nstime_t = type { i64, i32 }
%struct._packet_info = type { ptr, ptr, i32, i32, %struct.nstime_t, %struct.nstime_t, %struct.nstime_t, i8, ptr, ptr, ptr, ptr, %struct._address, %struct._address, %struct._address, %struct._address, %struct._address, %struct._address, i32, ptr, i8, [3 x i8], %struct.anon, i32, i32, i32, i32, ptr, i8, ptr, ptr, i16, i16, i32, i32, i16, i32, i32, ptr, ptr, ptr, i8, i8, i16, i16, i16, i32, i16, i16, ptr, ptr, ptr, ptr, ptr, i32, i32 }
%struct._address = type { i32, i32, ptr, ptr }
%struct.anon = type { i8, [3 x i8] }
%struct._bluetooth_data_t = type { i32, i32, ptr, ptr, ptr, ptr, ptr, ptr, ptr, ptr, ptr, ptr, ptr, i32, %union.anon }
%union.anon = type { ptr }
%struct._bluetooth_hci_summary_tap_t = type { i32, i32, i16, i8, i8, i8, i8, i8, i8, ptr, i32 }

@hf_bthci_evt_connection_handle = internal global i32 0, align 4
@hf_bthci_evt_status = internal global i32 0, align 4
@bthci_cmd_status_vals_ext = external global %struct._value_string_ext, align 8
@hf_bthci_evt_page_number = internal global i32 0, align 4
@hf_bthci_evt_max_page_number = internal global i32 0, align 4
@.str.1819 = private unnamed_addr constant [15 x i8] c"Unknown 0x%02x\00", align 1
@bluetooth_hci_summary_tap = external global i32, align 4

; Function Attrs: null_pointer_is_valid sspstrong uwtable
define internal void @send_hci_summary_status_tap(i8 noundef zeroext %0, ptr noundef %1, ptr noundef %2) #1 {
  %4 = alloca i8, align 1
  %5 = alloca ptr, align 8
  %6 = alloca ptr, align 8
  %7 = alloca ptr, align 8
  store i8 %0, ptr %4, align 1
  store ptr %1, ptr %5, align 8
  store ptr %2, ptr %6, align 8
  %8 = load i32, ptr @bluetooth_hci_summary_tap, align 4
  %9 = call zeroext i1 @have_tap_listener(i32 noundef %8)
  br i1 %9, label %10, label %47

10:                                               ; preds = %3
  call void @llvm.lifetime.start.p0(i64 8, ptr %7) #11
  %11 = load ptr, ptr %5, align 8
  %12 = getelementptr inbounds nuw %struct._packet_info, ptr %11, i32 0, i32 51
  %13 = load ptr, ptr %12, align 8
  %14 = call noalias ptr @wmem_alloc(ptr noundef %13, i64 noundef 32) #13
  store ptr %14, ptr %7, align 8
  %15 = load ptr, ptr %6, align 8
  %16 = getelementptr inbounds nuw %struct._bluetooth_data_t, ptr %15, i32 0, i32 0
  %17 = load i32, ptr %16, align 8
  %18 = load ptr, ptr %7, align 8
  %19 = getelementptr inbounds nuw %struct._bluetooth_hci_summary_tap_t, ptr %18, i32 0, i32 0
  store i32 %17, ptr %19, align 8
  %20 = load ptr, ptr %6, align 8
  %21 = getelementptr inbounds nuw %struct._bluetooth_data_t, ptr %20, i32 0, i32 1
  %22 = load i32, ptr %21, align 4
  %23 = load ptr, ptr %7, align 8
  %24 = getelementptr inbounds nuw %struct._bluetooth_hci_summary_tap_t, ptr %23, i32 0, i32 1
  store i32 %22, ptr %24, align 4
  %25 = load ptr, ptr %7, align 8
  %26 = getelementptr inbounds nuw %struct._bluetooth_hci_summary_tap_t, ptr %25, i32 0, i32 10
  store i32 7, ptr %26, align 8
  %27 = load i8, ptr %4, align 1
  %28 = load ptr, ptr %7, align 8
  %29 = getelementptr inbounds nuw %struct._bluetooth_hci_summary_tap_t, ptr %28, i32 0, i32 6
  store i8 %27, ptr %29, align 1
  %30 = load i8, ptr %4, align 1
  %31 = zext i8 %30 to i32
  %32 = call ptr @try_val_to_str_ext(i32 noundef %31, ptr noundef @bthci_cmd_status_vals_ext)
  %33 = icmp ne ptr %32, null
  br i1 %33, label %34, label %40

34:                                               ; preds = %10
  %35 = load i8, ptr %4, align 1
  %36 = zext i8 %35 to i32
  %37 = call ptr @val_to_str_ext(i32 noundef %36, ptr noundef @bthci_cmd_status_vals_ext, ptr noundef @.str.1819)
  %38 = load ptr, ptr %7, align 8
  %39 = getelementptr inbounds nuw %struct._bluetooth_hci_summary_tap_t, ptr %38, i32 0, i32 9
  store ptr %37, ptr %39, align 8
  br label %43

40:                                               ; preds = %10
  %41 = load ptr, ptr %7, align 8
  %42 = getelementptr inbounds nuw %struct._bluetooth_hci_summary_tap_t, ptr %41, i32 0, i32 9
  store ptr null, ptr %42, align 8
  br label %43

43:                                               ; preds = %40, %34
  %44 = load i32, ptr @bluetooth_hci_summary_tap, align 4
  %45 = load ptr, ptr %5, align 8
  %46 = load ptr, ptr %7, align 8
  call void @tap_queue_packet(i32 noundef %44, ptr noundef %45, ptr noundef %46)
  call void @llvm.lifetime.end.p0(i64 8, ptr %7) #11
  br label %47

47:                                               ; preds = %43, %3
  ret void
}

; Function Attrs: null_pointer_is_valid sspstrong uwtable
define internal i32 @dissect_bthci_evt_read_remote_ext_features_complete(ptr noundef %0, i32 noundef %1, ptr noundef %2, ptr noundef %3, ptr noundef %4) #1 {
  %6 = alloca ptr, align 8
  %7 = alloca i32, align 4
  %8 = alloca ptr, align 8
  %9 = alloca ptr, align 8
  %10 = alloca ptr, align 8
  %11 = alloca i8, align 1
  store ptr %0, ptr %6, align 8
  store i32 %1, ptr %7, align 4
  store ptr %2, ptr %8, align 8
  store ptr %3, ptr %9, align 8
  store ptr %4, ptr %10, align 8
  call void @llvm.lifetime.start.p0(i64 1, ptr %11) #11
  %12 = load ptr, ptr %9, align 8
  %13 = load i32, ptr @hf_bthci_evt_status, align 4
  %14 = load ptr, ptr %6, align 8
  %15 = load i32, ptr %7, align 4
  %16 = call ptr @proto_tree_add_item(ptr noundef %12, i32 noundef %13, ptr noundef %14, i32 noundef %15, i32 noundef 1, i32 noundef -2147483648)
  %17 = load ptr, ptr %6, align 8
  %18 = load i32, ptr %7, align 4
  %19 = call zeroext i8 @tvb_get_uint8(ptr noundef %17, i32 noundef %18)
  %20 = load ptr, ptr %8, align 8
  %21 = load ptr, ptr %10, align 8
  call void @send_hci_summary_status_tap(i8 noundef zeroext %19, ptr noundef %20, ptr noundef %21)
  %22 = load i32, ptr %7, align 4
  %23 = add i32 %22, 1
  store i32 %23, ptr %7, align 4
  %24 = load ptr, ptr %9, align 8
  %25 = load i32, ptr @hf_bthci_evt_connection_handle, align 4
  %26 = load ptr, ptr %6, align 8
  %27 = load i32, ptr %7, align 4
  %28 = call ptr @proto_tree_add_item(ptr noundef %24, i32 noundef %25, ptr noundef %26, i32 noundef %27, i32 noundef 2, i32 noundef -2147483648)
  %29 = load i32, ptr %7, align 4
  %30 = add i32 %29, 2
  store i32 %30, ptr %7, align 4
  %31 = load ptr, ptr %6, align 8
  %32 = load i32, ptr %7, align 4
  %33 = call zeroext i8 @tvb_get_uint8(ptr noundef %31, i32 noundef %32)
  store i8 %33, ptr %11, align 1
  %34 = load ptr, ptr %9, align 8
  %35 = load i32, ptr @hf_bthci_evt_page_number, align 4
  %36 = load ptr, ptr %6, align 8
  %37 = load i32, ptr %7, align 4
  %38 = call ptr @proto_tree_add_item(ptr noundef %34, i32 noundef %35, ptr noundef %36, i32 noundef %37, i32 noundef 1, i32 noundef -2147483648)
  %39 = load i32, ptr %7, align 4
  %40 = add i32 %39, 1
  store i32 %40, ptr %7, align 4
  %41 = load ptr, ptr %9, align 8
  %42 = load i32, ptr @hf_bthci_evt_max_page_number, align 4
  %43 = load ptr, ptr %6, align 8
  %44 = load i32, ptr %7, align 4
  %45 = call ptr @proto_tree_add_item(ptr noundef %41, i32 noundef %42, ptr noundef %43, i32 noundef %44, i32 noundef 1, i32 noundef -2147483648)
  %46 = load i32, ptr %7, align 4
  %47 = add i32 %46, 1
  store i32 %47, ptr %7, align 4
  %48 = load ptr, ptr %6, align 8
  %49 = load i32, ptr %7, align 4
  %50 = load ptr, ptr %8, align 8
  %51 = load ptr, ptr %9, align 8
  %52 = load i8, ptr %11, align 1
  %53 = call i32 @dissect_bthci_evt_lmp_features(ptr noundef %48, i32 noundef %49, ptr noundef %50, ptr noundef %51, i8 noundef zeroext %52)
  store i32 %53, ptr %7, align 4
  %54 = load i32, ptr %7, align 4
  call void @llvm.lifetime.end.p0(i64 1, ptr %11) #11
  ret i32 %54
}